; Function Attrs: nounwind uwtable
define internal fastcc void @maybeConvertIntset(ptr noundef %0) unnamed_addr #0 {
  %2 = load i32, ptr %0, align 8
  %3 = and i32 %2, 240
  %4 = icmp eq i32 %3, 96
  br i1 %4, label %6, label %5, !prof !40

5:                                                ; preds = %1
  tail call void @_serverAssert(ptr noundef nonnull @.str.24, ptr noundef nonnull @.str.1, i32 noundef 63) #10
  tail call void @abort() #11
  unreachable

6:                                                ; preds = %1
  %7 = getelementptr inbounds nuw i8, ptr %0, i64 8
  %8 = load ptr, ptr %7, align 8, !tbaa !38
  %9 = tail call i32 @intsetLen(ptr noundef %8) #10
  %10 = zext i32 %9 to i64
  %11 = load i64, ptr getelementptr inbounds nuw (i8, ptr @server, i64 7712), align 8, !tbaa !60
  %spec.store.select.i = tail call range(i64 0, 1073741825) i64 @llvm.umin.i64(i64 %11, i64 1073741824)
  %12 = icmp samesign ult i64 %spec.store.select.i, %10
  br i1 %12, label %13, label %33

13:                                               ; preds = %6
  %14 = load i32, ptr %0, align 8
  %15 = lshr i32 %14, 4
  %16 = and i32 %15, 15
  switch i32 %16, label %31 [
    i32 2, label %17
    i32 6, label %24
    i32 11, label %28
  ]

17:                                               ; preds = %13
  %18 = load ptr, ptr %7, align 8, !tbaa !38
  %19 = getelementptr inbounds nuw i8, ptr %18, i64 24
  %20 = load i64, ptr %19, align 8, !tbaa !50
  %21 = getelementptr inbounds nuw i8, ptr %18, i64 32
  %22 = load i64, ptr %21, align 8, !tbaa !50
  %23 = add i64 %22, %20
  br label %setTypeConvert.exit

24:                                               ; preds = %13
  %25 = load ptr, ptr %7, align 8, !tbaa !38
  %26 = tail call i32 @intsetLen(ptr noundef %25) #10
  %27 = zext i32 %26 to i64
  br label %setTypeConvert.exit

28:                                               ; preds = %13
  %29 = load ptr, ptr %7, align 8, !tbaa !38
  %30 = tail call i64 @lpLength(ptr noundef %29) #10
  br label %setTypeConvert.exit

31:                                               ; preds = %13
  tail call void (ptr, i32, ptr, ...) @_serverPanic(ptr noundef nonnull @.str.1, i32 noundef 471, ptr noundef nonnull @.str.3) #10
  tail call void @abort() #11
  unreachable

setTypeConvert.exit:                              ; preds = %17, %24, %28
  %.0.i.i = phi i64 [ %23, %17 ], [ %27, %24 ], [ %30, %28 ]
  %32 = tail call i32 @setTypeConvertAndExpand(ptr noundef nonnull %0, i32 noundef 2, i64 noundef %.0.i.i, i32 noundef 1)
  br label %33

33:                                               ; preds = %setTypeConvert.exit, %6
  ret void
}